target datalayout = "e-m:e-p270:32:32-p271:32:32-p272:64:64-i64:64-i128:128-f80:128-n8:16:32:64-S128"
target triple = "x86_64-pc-linux-gnu"

%struct.portalhashent = type { [64 x i8], ptr }
%struct.PortalData = type { ptr, ptr, ptr, ptr, ptr, i32, i32, i32, ptr, i32, %struct.QueryCompletion, ptr, ptr, ptr, ptr, i32, i32, i32, i8, i8, ptr, ptr, ptr, ptr, ptr, ptr, ptr, i8, i8, i64, i64, i8 }
%struct.QueryCompletion = type { i32, i64 }
%struct.HASH_SEQ_STATUS = type { ptr, i32, ptr, i8, i32 }

@PortalHashTable = internal global ptr null, align 8

; Function Attrs: nounwind uwtable
define dso_local zeroext i1 @ThereAreNoReadyPortals() #0 {
  %1 = alloca i1, align 1
  %2 = alloca %struct.HASH_SEQ_STATUS, align 8
  %3 = alloca ptr, align 8
  %4 = alloca ptr, align 8
  %5 = alloca i32, align 4
  call void @llvm.lifetime.start.p0(i64 32, ptr %2) #6
  call void @llvm.lifetime.start.p0(i64 8, ptr %3) #6
  %6 = load ptr, ptr @PortalHashTable, align 8
  call void @hash_seq_init(ptr noundef %2, ptr noundef %6)
  br label %7

7:                                                ; preds = %22, %0
  %8 = call ptr @hash_seq_search(ptr noundef %2)
  store ptr %8, ptr %3, align 8
  %9 = icmp ne ptr %8, null
  br i1 %9, label %10, label %23

10:                                               ; preds = %7
  call void @llvm.lifetime.start.p0(i64 8, ptr %4) #6
  %11 = load ptr, ptr %3, align 8
  %12 = getelementptr inbounds nuw %struct.portalhashent, ptr %11, i32 0, i32 1
  %13 = load ptr, ptr %12, align 8
  store ptr %13, ptr %4, align 8
  %14 = load ptr, ptr %4, align 8
  %15 = getelementptr inbounds nuw %struct.PortalData, ptr %14, i32 0, i32 17
  %16 = load i32, ptr %15, align 8
  %17 = icmp eq i32 %16, 2
  br i1 %17, label %18, label %19

18:                                               ; preds = %10
  store i1 false, ptr %1, align 1
  store i32 1, ptr %5, align 4
  br label %20

19:                                               ; preds = %10
  store i32 0, ptr %5, align 4
  br label %20

20:                                               ; preds = %19, %18
  call void @llvm.lifetime.end.p0(i64 8, ptr %4) #6
  %21 = load i32, ptr %5, align 4
  switch i32 %21, label %24 [
    i32 0, label %22
  ]

22:                                               ; preds = %20
  br label %7, !llvm.loop !17

23:                                               ; preds = %7
  store i1 true, ptr %1, align 1
  store i32 1, ptr %5, align 4
  br label %24

24:                                               ; preds = %23, %20
  call void @llvm.lifetime.end.p0(i64 8, ptr %3) #6
  call void @llvm.lifetime.end.p0(i64 32, ptr %2) #6
  %25 = load i1, ptr %1, align 1
  ret i1 %25
}