; Function Attrs: nounwind uwtable
define dso_local noundef zeroext i1 @ThereAreNoReadyPortals() local_unnamed_addr #0 {
  %1 = alloca %struct.HASH_SEQ_STATUS, align 8
  call void @llvm.lifetime.start.p0(i64 32, ptr nonnull %1) #8
  %2 = load ptr, ptr @PortalHashTable, align 8
  call void @hash_seq_init(ptr noundef nonnull %1, ptr noundef %2) #8
  br label %3

3:                                                ; preds = %5, %0
  %4 = call ptr @hash_seq_search(ptr noundef nonnull %1) #8
  %.not = icmp eq ptr %4, null
  br i1 %.not, label %10, label %5

5:                                                ; preds = %3
  %6 = getelementptr inbounds nuw i8, ptr %4, i64 64
  %7 = load ptr, ptr %6, align 8
  %8 = getelementptr inbounds nuw i8, ptr %7, i64 128
  %9 = load i32, ptr %8, align 8
  %.not5 = icmp eq i32 %9, 2
  br i1 %.not5, label %10, label %3, !llvm.loop !16

10:                                               ; preds = %3, %5
  call void @llvm.lifetime.end.p0(i64 32, ptr nonnull %1) #8
  ret i1 %.not
}